; Function Attrs: nounwind uwtable
define ptr @OSSL_CMP_MSG_get0_header(ptr noundef readonly captures(address_is_null) %0) local_unnamed_addr #0 {
  %2 = icmp eq ptr %0, null
  br i1 %2, label %3, label %4

3:                                                ; preds = %1
  tail call void @ERR_new() #7
  tail call void @ERR_set_debug(ptr noundef nonnull @.str, i32 noundef 68, ptr noundef nonnull @__func__.OSSL_CMP_MSG_get0_header) #7
  tail call void (i32, i32, ptr, ...) @ERR_set_error(i32 noundef 58, i32 noundef 103, ptr noundef null) #7
  br label %6

4:                                                ; preds = %1
  %5 = load ptr, ptr %0, align 8, !tbaa !15
  br label %6

6:                                                ; preds = %4, %3
  %.0 = phi ptr [ null, %3 ], [ %5, %4 ]
  ret ptr %.0
}